; Function Attrs: nounwind uwtable
define ptr @l_Array_forIn_x27Unsafe_loop___at_Lean_Elab_Tactic_BVDecide_Frontend_Normalize_enumsPass_postprocess___spec__7___at_Lean_Elab_Tactic_BVDecide_Frontend_Normalize_enumsPass_postprocess___spec__8___boxed(ptr noundef %0, ptr noundef %1, ptr noundef %2, ptr noundef %3, ptr noundef %4, ptr noundef %5, ptr noundef %6, ptr noundef %7, ptr noundef %8, ptr noundef %9, ptr noundef %10, ptr noundef %11) local_unnamed_addr #1 {
  %13 = getelementptr i8, ptr %3, i64 8
  %.val31 = load i64, ptr %13, align 8, !tbaa !9
  %14 = ptrtoint ptr %3 to i64
  %15 = and i64 %14, 1
  %.not = icmp eq i64 %15, 0
  br i1 %.not, label %16, label %lean_dec.exit22

16:                                               ; preds = %12
  %17 = load i32, ptr %3, align 4, !tbaa !4
  %18 = icmp sgt i32 %17, 1
  br i1 %18, label %19, label %21, !prof !13

19:                                               ; preds = %16
  %20 = add nsw i32 %17, -1
  store i32 %20, ptr %3, align 4, !tbaa !4
  br label %lean_dec.exit22

21:                                               ; preds = %16
  %.not.i = icmp eq i32 %17, 0
  br i1 %.not.i, label %lean_dec.exit22, label %22

22:                                               ; preds = %21
  tail call void @lean_dec_ref_cold(ptr noundef nonnull %3) #7
  br label %lean_dec.exit22

lean_dec.exit22:                                  ; preds = %22, %21, %19, %12
  %23 = getelementptr i8, ptr %4, i64 8
  %.val = load i64, ptr %23, align 8, !tbaa !9
  %24 = ptrtoint ptr %4 to i64
  %25 = and i64 %24, 1
  %.not32 = icmp eq i64 %25, 0
  br i1 %.not32, label %26, label %lean_dec.exit21

26:                                               ; preds = %lean_dec.exit22
  %27 = load i32, ptr %4, align 4, !tbaa !4
  %28 = icmp sgt i32 %27, 1
  br i1 %28, label %29, label %31, !prof !13

29:                                               ; preds = %26
  %30 = add nsw i32 %27, -1
  store i32 %30, ptr %4, align 4, !tbaa !4
  br label %lean_dec.exit21

31:                                               ; preds = %26
  %.not.i23 = icmp eq i32 %27, 0
  br i1 %.not.i23, label %lean_dec.exit21, label %32

32:                                               ; preds = %31
  tail call void @lean_dec_ref_cold(ptr noundef nonnull %4) #7
  br label %lean_dec.exit21

lean_dec.exit21:                                  ; preds = %32, %31, %29, %lean_dec.exit22
  %33 = tail call ptr @l_Array_forIn_x27Unsafe_loop___at_Lean_Elab_Tactic_BVDecide_Frontend_Normalize_enumsPass_postprocess___spec__7___at_Lean_Elab_Tactic_BVDecide_Frontend_Normalize_enumsPass_postprocess___spec__8(ptr poison, ptr poison, ptr noundef %2, i64 noundef %.val31, i64 noundef %.val, ptr noundef %5, ptr noundef %6, ptr noundef %7, ptr noundef %8, ptr noundef %9, ptr noundef %10, ptr noundef %11)
  %34 = ptrtoint ptr %2 to i64
  %35 = and i64 %34, 1
  %.not33 = icmp eq i64 %35, 0
  br i1 %.not33, label %36, label %lean_dec.exit20

36:                                               ; preds = %lean_dec.exit21
  %37 = load i32, ptr %2, align 4, !tbaa !4
  %38 = icmp sgt i32 %37, 1
  br i1 %38, label %39, label %41, !prof !13

39:                                               ; preds = %36
  %40 = add nsw i32 %37, -1
  store i32 %40, ptr %2, align 4, !tbaa !4
  br label %lean_dec.exit20

41:                                               ; preds = %36
  %.not.i25 = icmp eq i32 %37, 0
  br i1 %.not.i25, label %lean_dec.exit20, label %42

42:                                               ; preds = %41
  tail call void @lean_dec_ref_cold(ptr noundef nonnull %2) #7
  br label %lean_dec.exit20

lean_dec.exit20:                                  ; preds = %42, %41, %39, %lean_dec.exit21
  %43 = ptrtoint ptr %1 to i64
  %44 = and i64 %43, 1
  %.not34 = icmp eq i64 %44, 0
  br i1 %.not34, label %45, label %lean_dec.exit19

45:                                               ; preds = %lean_dec.exit20
  %46 = load i32, ptr %1, align 4, !tbaa !4
  %47 = icmp sgt i32 %46, 1
  br i1 %47, label %48, label %50, !prof !13

48:                                               ; preds = %45
  %49 = add nsw i32 %46, -1
  store i32 %49, ptr %1, align 4, !tbaa !4
  br label %lean_dec.exit19

50:                                               ; preds = %45
  %.not.i27 = icmp eq i32 %46, 0
  br i1 %.not.i27, label %lean_dec.exit19, label %51

51:                                               ; preds = %50
  tail call void @lean_dec_ref_cold(ptr noundef nonnull %1) #7
  br label %lean_dec.exit19

lean_dec.exit19:                                  ; preds = %51, %50, %48, %lean_dec.exit20
  %52 = ptrtoint ptr %0 to i64
  %53 = and i64 %52, 1
  %.not35 = icmp eq i64 %53, 0
  br i1 %.not35, label %54, label %lean_dec.exit

54:                                               ; preds = %lean_dec.exit19
  %55 = load i32, ptr %0, align 4, !tbaa !4
  %56 = icmp sgt i32 %55, 1
  br i1 %56, label %57, label %59, !prof !13

57:                                               ; preds = %54
  %58 = add nsw i32 %55, -1
  store i32 %58, ptr %0, align 4, !tbaa !4
  br label %lean_dec.exit

59:                                               ; preds = %54
  %.not.i29 = icmp eq i32 %55, 0
  br i1 %.not.i29, label %lean_dec.exit, label %60

60:                                               ; preds = %59
  tail call void @lean_dec_ref_cold(ptr noundef nonnull %0) #7
  br label %lean_dec.exit

lean_dec.exit:                                    ; preds = %60, %59, %57, %lean_dec.exit19
  ret ptr %33
}